target datalayout = "e-m:e-p270:32:32-p271:32:32-p272:64:64-i64:64-i128:128-f80:128-n8:16:32:64-S128"
target triple = "x86_64-unknown-linux-gnu"

%"class.Imath_3_2::Matrix44" = type { [4 x [4 x float]] }
%"class.Imf_3_2::AcesInputFile::Data" = type <{ ptr, ptr, i64, i64, i32, i32, i8, [3 x i8], %"class.Imath_3_2::Matrix44", [4 x i8] }>

; Function Attrs: mustprogress nounwind uwtable
define hidden void @_ZN7Imf_3_213AcesInputFile4DataD2Ev(ptr noundef nonnull align 8 dereferenceable(108) %this) unnamed_addr #5 align 2 {
entry:
  %this.addr = alloca ptr, align 8
  store ptr %this, ptr %this.addr, align 8
  %this1 = load ptr, ptr %this.addr, align 8
  %rgbaFile = getelementptr inbounds %"class.Imf_3_2::AcesInputFile::Data", ptr %this1, i32 0, i32 0
  %0 = load ptr, ptr %rgbaFile, align 8
  %isnull = icmp eq ptr %0, null
  br i1 %isnull, label %delete.end, label %delete.notnull

delete.notnull:                                   ; preds = %entry
  %vtable = load ptr, ptr %0, align 8
  %vfn = getelementptr inbounds ptr, ptr %vtable, i64 1
  %1 = load ptr, ptr %vfn, align 8
  call void %1(ptr noundef nonnull align 8 dereferenceable(64) %0) #3
  br label %delete.end

delete.end:                                       ; preds = %delete.notnull, %entry
  ret void
}